; Function Attrs: mustprogress nounwind uwtable
define dso_local void @_ZN15b3ConvexUtilityD2Ev(ptr noundef nonnull align 16 dereferenceable(184) %this) unnamed_addr #0 align 2 personality ptr @__gxx_personality_v0 {
entry:
  store ptr getelementptr inbounds ({ [4 x ptr] }, ptr @_ZTV15b3ConvexUtility, i64 0, i32 0, i64 2), ptr %this, align 16
  %m_data.i.i.i = getelementptr inbounds i8, ptr %this, i64 168
  %0 = load ptr, ptr %m_data.i.i.i, align 8
  %tobool.not.i.i.i = icmp eq ptr %0, null
  br i1 %tobool.not.i.i.i, label %_ZN20b3AlignedObjectArrayI9b3Vector3ED2Ev.exit, label %if.then.i.i.i

if.then.i.i.i:                                    ; preds = %entry
  %m_ownsMemory.i.i.i = getelementptr inbounds i8, ptr %this, i64 176
  %1 = load i8, ptr %m_ownsMemory.i.i.i, align 16
  %2 = and i8 %1, 1
  %tobool2.not.i.i.i = icmp eq i8 %2, 0
  br i1 %tobool2.not.i.i.i, label %_ZN20b3AlignedObjectArrayI9b3Vector3ED2Ev.exit, label %if.then3.i.i.i

if.then3.i.i.i:                                   ; preds = %if.then.i.i.i
  invoke void @_Z21b3AlignedFreeInternalPv(ptr noundef nonnull %0)
          to label %_ZN20b3AlignedObjectArrayI9b3Vector3ED2Ev.exit unwind label %terminate.lpad.i

terminate.lpad.i:                                 ; preds = %if.then3.i.i.i
  %3 = landingpad { ptr, i32 }
          catch ptr null
  %4 = extractvalue { ptr, i32 } %3, 0
  tail call void @__clang_call_terminate(ptr %4) #10
  unreachable

_ZN20b3AlignedObjectArrayI9b3Vector3ED2Ev.exit:   ; preds = %entry, %if.then.i.i.i, %if.then3.i.i.i
  %m_size.i.i.i = getelementptr inbounds i8, ptr %this, i64 156
  %m_ownsMemory.i1.i.i = getelementptr inbounds i8, ptr %this, i64 176
  store i8 1, ptr %m_ownsMemory.i1.i.i, align 16
  store ptr null, ptr %m_data.i.i.i, align 8
  store i32 0, ptr %m_size.i.i.i, align 4
  %m_capacity.i.i.i = getelementptr inbounds i8, ptr %this, i64 160
  store i32 0, ptr %m_capacity.i.i.i, align 16
  %m_faces = getelementptr inbounds i8, ptr %this, i64 120
  tail call void @_ZN20b3AlignedObjectArrayI8b3MyFaceED2Ev(ptr noundef nonnull align 8 dereferenceable(25) %m_faces) #11
  %m_data.i.i.i1 = getelementptr inbounds i8, ptr %this, i64 104
  %5 = load ptr, ptr %m_data.i.i.i1, align 8
  %tobool.not.i.i.i2 = icmp eq ptr %5, null
  br i1 %tobool.not.i.i.i2, label %_ZN20b3AlignedObjectArrayI9b3Vector3ED2Ev.exit11, label %if.then.i.i.i3

if.then.i.i.i3:                                   ; preds = %_ZN20b3AlignedObjectArrayI9b3Vector3ED2Ev.exit
  %m_ownsMemory.i.i.i4 = getelementptr inbounds i8, ptr %this, i64 112
  %6 = load i8, ptr %m_ownsMemory.i.i.i4, align 16
  %7 = and i8 %6, 1
  %tobool2.not.i.i.i5 = icmp eq i8 %7, 0
  br i1 %tobool2.not.i.i.i5, label %_ZN20b3AlignedObjectArrayI9b3Vector3ED2Ev.exit11, label %if.then3.i.i.i6

if.then3.i.i.i6:                                  ; preds = %if.then.i.i.i3
  invoke void @_Z21b3AlignedFreeInternalPv(ptr noundef nonnull %5)
          to label %_ZN20b3AlignedObjectArrayI9b3Vector3ED2Ev.exit11 unwind label %terminate.lpad.i7

terminate.lpad.i7:                                ; preds = %if.then3.i.i.i6
  %8 = landingpad { ptr, i32 }
          catch ptr null
  %9 = extractvalue { ptr, i32 } %8, 0
  tail call void @__clang_call_terminate(ptr %9) #10
  unreachable

_ZN20b3AlignedObjectArrayI9b3Vector3ED2Ev.exit11: ; preds = %_ZN20b3AlignedObjectArrayI9b3Vector3ED2Ev.exit, %if.then.i.i.i3, %if.then3.i.i.i6
  %m_size.i.i.i8 = getelementptr inbounds i8, ptr %this, i64 92
  %m_ownsMemory.i1.i.i9 = getelementptr inbounds i8, ptr %this, i64 112
  store i8 1, ptr %m_ownsMemory.i1.i.i9, align 16
  store ptr null, ptr %m_data.i.i.i1, align 8
  store i32 0, ptr %m_size.i.i.i8, align 4
  %m_capacity.i.i.i10 = getelementptr inbounds i8, ptr %this, i64 96
  store i32 0, ptr %m_capacity.i.i.i10, align 16
  ret void
}